target datalayout = "e-m:e-p270:32:32-p271:32:32-p272:64:64-i64:64-i128:128-f80:128-n8:16:32:64-S128"
target triple = "x86_64-pc-linux-gnu"

%"class.duckdb_re2::Prefilter::Info::Walker" = type <{ %"class.duckdb_re2::Regexp::Walker", i8, [7 x i8] }>
%"class.duckdb_re2::Regexp::Walker" = type { ptr, %"class.std::stack", i8, i32 }
%"class.std::stack" = type { %"class.std::deque" }
%"class.std::deque" = type { %"class.std::_Deque_base" }
%"class.std::_Deque_base" = type { %"struct.std::_Deque_base<duckdb_re2::WalkState<duckdb_re2::Prefilter::Info *>, std::allocator<duckdb_re2::WalkState<duckdb_re2::Prefilter::Info *>>>::_Deque_impl" }
%"struct.std::_Deque_base<duckdb_re2::WalkState<duckdb_re2::Prefilter::Info *>, std::allocator<duckdb_re2::WalkState<duckdb_re2::Prefilter::Info *>>>::_Deque_impl" = type { %"struct.std::_Deque_base<duckdb_re2::WalkState<duckdb_re2::Prefilter::Info *>, std::allocator<duckdb_re2::WalkState<duckdb_re2::Prefilter::Info *>>>::_Deque_impl_data" }
%"struct.std::_Deque_base<duckdb_re2::WalkState<duckdb_re2::Prefilter::Info *>, std::allocator<duckdb_re2::WalkState<duckdb_re2::Prefilter::Info *>>>::_Deque_impl_data" = type { ptr, i64, %"struct.std::_Deque_iterator", %"struct.std::_Deque_iterator" }
%"struct.std::_Deque_iterator" = type { ptr, ptr, ptr, ptr }
%"class.duckdb_re2::Regexp" = type { i8, i8, i16, i16, i16, %union.anon.6, ptr, %union.anon.7 }
%union.anon.6 = type { ptr }
%union.anon.7 = type { %struct.anon.8 }
%struct.anon.8 = type { i32, ptr }

@_ZN10duckdb_re29Prefilter4InfoD1Ev = hidden unnamed_addr alias void (ptr), ptr @_ZN10duckdb_re29Prefilter4InfoD2Ev

; Function Attrs: mustprogress nounwind uwtable
define linkonce_odr hidden void @_ZNSt15_Deque_iteratorIN10duckdb_re29WalkStateIPNS0_9Prefilter4InfoEEERS5_PS5_EC2Ev(ptr noundef nonnull align 8 dereferenceable(32) %0) unnamed_addr #1 comdat align 2 {
  %2 = alloca ptr, align 8
  store ptr %0, ptr %2, align 8, !tbaa !216
  %3 = load ptr, ptr %2, align 8
  %4 = getelementptr inbounds nuw %"struct.std::_Deque_iterator", ptr %3, i32 0, i32 0
  store ptr null, ptr %4, align 8, !tbaa !218
  %5 = getelementptr inbounds nuw %"struct.std::_Deque_iterator", ptr %3, i32 0, i32 1
  store ptr null, ptr %5, align 8, !tbaa !219
  %6 = getelementptr inbounds nuw %"struct.std::_Deque_iterator", ptr %3, i32 0, i32 2
  store ptr null, ptr %6, align 8, !tbaa !220
  %7 = getelementptr inbounds nuw %"struct.std::_Deque_iterator", ptr %3, i32 0, i32 3
  store ptr null, ptr %7, align 8, !tbaa !221
  ret void
}

; Function Attrs: mustprogress nounwind uwtable
define linkonce_odr hidden void @_ZNSt15__new_allocatorIN10duckdb_re29WalkStateIPNS0_9Prefilter4InfoEEEEC2Ev(ptr noundef nonnull align 1 dereferenceable(1) %0) unnamed_addr #1 comdat align 2 {
  %2 = alloca ptr, align 8
  store ptr %0, ptr %2, align 8, !tbaa !210
  ret void
}

; Function Attrs: mustprogress nounwind uwtable
define linkonce_odr hidden void @_ZNSt11_Deque_baseIN10duckdb_re29WalkStateIPNS0_9Prefilter4InfoEEESaIS5_EE16_Deque_impl_dataC2Ev(ptr noundef nonnull align 8 dereferenceable(80) %0) unnamed_addr #1 comdat align 2 {
  %2 = alloca ptr, align 8
  store ptr %0, ptr %2, align 8, !tbaa !214
  %3 = load ptr, ptr %2, align 8
  %4 = getelementptr inbounds nuw %"struct.std::_Deque_base<duckdb_re2::WalkState<duckdb_re2::Prefilter::Info *>, std::allocator<duckdb_re2::WalkState<duckdb_re2::Prefilter::Info *>>>::_Deque_impl_data", ptr %3, i32 0, i32 0
  store ptr null, ptr %4, align 8, !tbaa !204
  %5 = getelementptr inbounds nuw %"struct.std::_Deque_base<duckdb_re2::WalkState<duckdb_re2::Prefilter::Info *>, std::allocator<duckdb_re2::WalkState<duckdb_re2::Prefilter::Info *>>>::_Deque_impl_data", ptr %3, i32 0, i32 1
  store i64 0, ptr %5, align 8, !tbaa !203
  %6 = getelementptr inbounds nuw %"struct.std::_Deque_base<duckdb_re2::WalkState<duckdb_re2::Prefilter::Info *>, std::allocator<duckdb_re2::WalkState<duckdb_re2::Prefilter::Info *>>>::_Deque_impl_data", ptr %3, i32 0, i32 2
  call void @_ZNSt15_Deque_iteratorIN10duckdb_re29WalkStateIPNS0_9Prefilter4InfoEEERS5_PS5_EC2Ev(ptr noundef nonnull align 8 dereferenceable(32) %6) #18
  %7 = getelementptr inbounds nuw %"struct.std::_Deque_base<duckdb_re2::WalkState<duckdb_re2::Prefilter::Info *>, std::allocator<duckdb_re2::WalkState<duckdb_re2::Prefilter::Info *>>>::_Deque_impl_data", ptr %3, i32 0, i32 3
  call void @_ZNSt15_Deque_iteratorIN10duckdb_re29WalkStateIPNS0_9Prefilter4InfoEEERS5_PS5_EC2Ev(ptr noundef nonnull align 8 dereferenceable(32) %7) #18
  ret void
}

; Function Attrs: mustprogress nounwind uwtable
define linkonce_odr hidden void @_ZNSaIN10duckdb_re29WalkStateIPNS_9Prefilter4InfoEEEEC2Ev(ptr noundef nonnull align 1 dereferenceable(1) %0) unnamed_addr #1 comdat align 2 {
  %2 = alloca ptr, align 8
  store ptr %0, ptr %2, align 8, !tbaa !212
  %3 = load ptr, ptr %2, align 8
  call void @_ZNSt15__new_allocatorIN10duckdb_re29WalkStateIPNS0_9Prefilter4InfoEEEEC2Ev(ptr noundef nonnull align 1 dereferenceable(1) %3) #18
  ret void
}

; Function Attrs: mustprogress nounwind uwtable
define linkonce_odr hidden void @_ZNSt15__new_allocatorIN10duckdb_re29WalkStateIPNS0_9Prefilter4InfoEEEED2Ev(ptr noundef nonnull align 1 dereferenceable(1) %0) unnamed_addr #1 comdat align 2 {
  %2 = alloca ptr, align 8
  store ptr %0, ptr %2, align 8, !tbaa !210
  ret void
}

; Function Attrs: mustprogress nounwind uwtable
define linkonce_odr hidden void @_ZNSt11_Deque_baseIN10duckdb_re29WalkStateIPNS0_9Prefilter4InfoEEESaIS5_EE11_Deque_implC2Ev(ptr noundef nonnull align 8 dereferenceable(80) %0) unnamed_addr #1 comdat align 2 {
  %2 = alloca ptr, align 8
  store ptr %0, ptr %2, align 8, !tbaa !201
  %3 = load ptr, ptr %2, align 8
  call void @_ZNSaIN10duckdb_re29WalkStateIPNS_9Prefilter4InfoEEEEC2Ev(ptr noundef nonnull align 1 dereferenceable(1) %3) #18
  call void @_ZNSt11_Deque_baseIN10duckdb_re29WalkStateIPNS0_9Prefilter4InfoEEESaIS5_EE16_Deque_impl_dataC2Ev(ptr noundef nonnull align 8 dereferenceable(80) %3) #18
  ret void
}

; Function Attrs: mustprogress uwtable
define linkonce_odr hidden void @_ZNSt11_Deque_baseIN10duckdb_re29WalkStateIPNS0_9Prefilter4InfoEEESaIS5_EEC2Ev(ptr noundef nonnull align 8 dereferenceable(80) %0) unnamed_addr #0 comdat align 2 personality ptr @__gxx_personality_v0 {
  %2 = alloca ptr, align 8
  %3 = alloca ptr, align 8
  %4 = alloca i32, align 4
  store ptr %0, ptr %2, align 8, !tbaa !199
  %5 = load ptr, ptr %2, align 8
  %6 = getelementptr inbounds nuw %"class.std::_Deque_base", ptr %5, i32 0, i32 0
  call void @_ZNSt11_Deque_baseIN10duckdb_re29WalkStateIPNS0_9Prefilter4InfoEEESaIS5_EE11_Deque_implC2Ev(ptr noundef nonnull align 8 dereferenceable(80) %6) #18
  invoke void @_ZNSt11_Deque_baseIN10duckdb_re29WalkStateIPNS0_9Prefilter4InfoEEESaIS5_EE17_M_initialize_mapEm(ptr noundef nonnull align 8 dereferenceable(80) %5, i64 noundef 0)
          to label %7 unwind label %8

7:                                                ; preds = %1
  ret void

8:                                                ; preds = %1
  %9 = landingpad { ptr, i32 }
          cleanup
  %10 = extractvalue { ptr, i32 } %9, 0
  store ptr %10, ptr %3, align 8
  %11 = extractvalue { ptr, i32 } %9, 1
  store i32 %11, ptr %4, align 4
  call void @_ZNSt15__new_allocatorIN10duckdb_re29WalkStateIPNS0_9Prefilter4InfoEEEED2Ev(ptr noundef nonnull align 8 dereferenceable(80) %6) #18
  br label %12

12:                                               ; preds = %8
  %13 = load ptr, ptr %3, align 8
  %14 = load i32, ptr %4, align 4
  %15 = insertvalue { ptr, i32 } poison, ptr %13, 0
  %16 = insertvalue { ptr, i32 } %15, i32 %14, 1
  resume { ptr, i32 } %16
}

; Function Attrs: mustprogress uwtable
define linkonce_odr hidden void @_ZNSt5dequeIN10duckdb_re29WalkStateIPNS0_9Prefilter4InfoEEESaIS5_EEC2Ev(ptr noundef nonnull align 8 dereferenceable(80) %0) unnamed_addr #0 comdat align 2 {
  %2 = alloca ptr, align 8
  store ptr %0, ptr %2, align 8, !tbaa !197
  %3 = load ptr, ptr %2, align 8
  call void @_ZNSt11_Deque_baseIN10duckdb_re29WalkStateIPNS0_9Prefilter4InfoEEESaIS5_EEC2Ev(ptr noundef nonnull align 8 dereferenceable(80) %3)
  ret void
}

; Function Attrs: mustprogress uwtable
define linkonce_odr hidden void @_ZNSt5stackIN10duckdb_re29WalkStateIPNS0_9Prefilter4InfoEEESt5dequeIS5_SaIS5_EEEC2IS8_vEEv(ptr noundef nonnull align 8 dereferenceable(80) %0) unnamed_addr #0 comdat align 2 {
  %2 = alloca ptr, align 8
  store ptr %0, ptr %2, align 8, !tbaa !195
  %3 = load ptr, ptr %2, align 8
  %4 = getelementptr inbounds nuw %"class.std::stack", ptr %3, i32 0, i32 0
  call void @llvm.memset.p0.i64(ptr align 8 %4, i8 0, i64 80, i1 false)
  call void @_ZNSt5dequeIN10duckdb_re29WalkStateIPNS0_9Prefilter4InfoEEESaIS5_EEC2Ev(ptr noundef nonnull align 8 dereferenceable(80) %4)
  ret void
}

; Function Attrs: mustprogress uwtable
define linkonce_odr hidden void @_ZN10duckdb_re26Regexp6WalkerIPNS_9Prefilter4InfoEEC2Ev(ptr noundef nonnull align 8 dereferenceable(96) %0) unnamed_addr #0 comdat align 2 {
  %2 = alloca ptr, align 8
  store ptr %0, ptr %2, align 8, !tbaa !115
  %3 = load ptr, ptr %2, align 8
  store ptr getelementptr inbounds inrange(-16, 48) ({ [8 x ptr] }, ptr @_ZTVN10duckdb_re26Regexp6WalkerIPNS_9Prefilter4InfoEEE, i32 0, i32 0, i32 2), ptr %3, align 8, !tbaa !102
  %4 = getelementptr inbounds nuw %"class.duckdb_re2::Regexp::Walker", ptr %3, i32 0, i32 1
  call void @_ZNSt5stackIN10duckdb_re29WalkStateIPNS0_9Prefilter4InfoEEESt5dequeIS5_SaIS5_EEEC2IS8_vEEv(ptr noundef nonnull align 8 dereferenceable(80) %4)
  %5 = getelementptr inbounds nuw %"class.duckdb_re2::Regexp::Walker", ptr %3, i32 0, i32 2
  store i8 0, ptr %5, align 8, !tbaa !118
  ret void
}

; Function Attrs: mustprogress nounwind uwtable
define linkonce_odr hidden noundef zeroext i1 @_ZN10duckdb_re26Regexp6WalkerIPNS_9Prefilter4InfoEE13stopped_earlyEv(ptr noundef nonnull align 8 dereferenceable(96) %0) #1 comdat align 2 {
  %2 = alloca ptr, align 8
  store ptr %0, ptr %2, align 8, !tbaa !115
  %3 = load ptr, ptr %2, align 8
  %4 = getelementptr inbounds nuw %"class.duckdb_re2::Regexp::Walker", ptr %3, i32 0, i32 2
  %5 = load i8, ptr %4, align 8, !tbaa !118, !range !59, !noundef !60
  %6 = trunc i8 %5 to i1
  ret i1 %6
}

; Function Attrs: mustprogress uwtable
define linkonce_odr hidden noundef ptr @_ZN10duckdb_re26Regexp6WalkerIPNS_9Prefilter4InfoEE15WalkExponentialEPS0_S4_i(ptr noundef nonnull align 8 dereferenceable(96) %0, ptr noundef %1, ptr noundef %2, i32 noundef %3) #0 comdat align 2 {
  %5 = alloca ptr, align 8
  %6 = alloca ptr, align 8
  %7 = alloca ptr, align 8
  %8 = alloca i32, align 4
  store ptr %0, ptr %5, align 8, !tbaa !115
  store ptr %1, ptr %6, align 8, !tbaa !93
  store ptr %2, ptr %7, align 8, !tbaa !45
  store i32 %3, ptr %8, align 4, !tbaa !61
  %9 = load ptr, ptr %5, align 8
  %10 = load i32, ptr %8, align 4, !tbaa !61
  %11 = getelementptr inbounds nuw %"class.duckdb_re2::Regexp::Walker", ptr %9, i32 0, i32 3
  store i32 %10, ptr %11, align 4, !tbaa !117
  %12 = load ptr, ptr %6, align 8, !tbaa !93
  %13 = load ptr, ptr %7, align 8, !tbaa !45
  %14 = call noundef ptr @_ZN10duckdb_re26Regexp6WalkerIPNS_9Prefilter4InfoEE12WalkInternalEPS0_S4_b(ptr noundef nonnull align 8 dereferenceable(96) %9, ptr noundef %12, ptr noundef %13, i1 noundef zeroext false)
  ret ptr %14
}

; Function Attrs: mustprogress uwtable
define linkonce_odr hidden void @_ZN10duckdb_re29Prefilter4Info6WalkerC2Eb(ptr noundef nonnull align 8 dereferenceable(97) %0, i1 noundef zeroext %1) unnamed_addr #0 comdat align 2 {
  %3 = alloca ptr, align 8
  %4 = alloca i8, align 1
  store ptr %0, ptr %3, align 8, !tbaa !100
  %5 = zext i1 %1 to i8
  store i8 %5, ptr %4, align 1, !tbaa !81
  %6 = load ptr, ptr %3, align 8
  call void @_ZN10duckdb_re26Regexp6WalkerIPNS_9Prefilter4InfoEEC2Ev(ptr noundef nonnull align 8 dereferenceable(96) %6)
  store ptr getelementptr inbounds inrange(-16, 48) ({ [8 x ptr] }, ptr @_ZTVN10duckdb_re29Prefilter4Info6WalkerE, i32 0, i32 0, i32 2), ptr %6, align 8, !tbaa !102
  %7 = getelementptr inbounds nuw %"class.duckdb_re2::Prefilter::Info::Walker", ptr %6, i32 0, i32 1
  %8 = load i8, ptr %4, align 1, !tbaa !81, !range !59, !noundef !60
  %9 = trunc i8 %8 to i1
  %10 = zext i1 %9 to i8
  store i8 %10, ptr %7, align 8, !tbaa !104
  ret void
}

; Function Attrs: inlinehint mustprogress nounwind uwtable
define linkonce_odr hidden noundef i32 @_ZN10duckdb_re2anENS_6Regexp10ParseFlagsES1_(i32 noundef %0, i32 noundef %1) #6 comdat {
  %3 = alloca i32, align 4
  %4 = alloca i32, align 4
  store i32 %0, ptr %3, align 4, !tbaa !95
  store i32 %1, ptr %4, align 4, !tbaa !95
  %5 = load i32, ptr %3, align 4, !tbaa !95
  %6 = load i32, ptr %4, align 4, !tbaa !95
  %7 = and i32 %5, %6
  ret i32 %7
}

; Function Attrs: mustprogress nounwind uwtable
define linkonce_odr hidden noundef i32 @_ZN10duckdb_re26Regexp11parse_flagsEv(ptr noundef nonnull align 8 dereferenceable(40) %0) #1 comdat align 2 {
  %2 = alloca ptr, align 8
  store ptr %0, ptr %2, align 8, !tbaa !93
  %3 = load ptr, ptr %2, align 8
  %4 = getelementptr inbounds nuw %"class.duckdb_re2::Regexp", ptr %3, i32 0, i32 2
  %5 = load i16, ptr %4, align 2, !tbaa !97
  %6 = zext i16 %5 to i32
  ret i32 %6
}

; Function Attrs: mustprogress uwtable
define hidden noundef ptr @_ZN10duckdb_re29Prefilter9BuildInfoEPNS_6RegexpE(ptr noundef %0) #0 align 2 personality ptr @__gxx_personality_v0 {
  %2 = alloca ptr, align 8
  %3 = alloca ptr, align 8
  %4 = alloca i8, align 1
  %5 = alloca %"class.duckdb_re2::Prefilter::Info::Walker", align 8
  %6 = alloca ptr, align 8
  %7 = alloca ptr, align 8
  %8 = alloca i32, align 4
  %9 = alloca i32, align 4
  store ptr %0, ptr %3, align 8, !tbaa !93
  call void @llvm.lifetime.start.p0(i64 1, ptr %4) #18
  %10 = load ptr, ptr %3, align 8, !tbaa !93
  %11 = call noundef i32 @_ZN10duckdb_re26Regexp11parse_flagsEv(ptr noundef nonnull align 8 dereferenceable(40) %10)
  %12 = call noundef i32 @_ZN10duckdb_re2anENS_6Regexp10ParseFlagsES1_(i32 noundef %11, i32 noundef 32)
  %13 = icmp ne i32 %12, 0
  %14 = zext i1 %13 to i8
  store i8 %14, ptr %4, align 1, !tbaa !81
  call void @llvm.lifetime.start.p0(i64 104, ptr %5) #18
  %15 = load i8, ptr %4, align 1, !tbaa !81, !range !59, !noundef !60
  %16 = trunc i8 %15 to i1
  call void @_ZN10duckdb_re29Prefilter4Info6WalkerC2Eb(ptr noundef nonnull align 8 dereferenceable(97) %5, i1 noundef zeroext %16)
  call void @llvm.lifetime.start.p0(i64 8, ptr %6) #18
  %17 = load ptr, ptr %3, align 8, !tbaa !93
  %18 = invoke noundef ptr @_ZN10duckdb_re26Regexp6WalkerIPNS_9Prefilter4InfoEE15WalkExponentialEPS0_S4_i(ptr noundef nonnull align 8 dereferenceable(96) %5, ptr noundef %17, ptr noundef null, i32 noundef 100000)
          to label %19 unwind label %27

19:                                               ; preds = %1
  store ptr %18, ptr %6, align 8, !tbaa !45
  %20 = invoke noundef zeroext i1 @_ZN10duckdb_re26Regexp6WalkerIPNS_9Prefilter4InfoEE13stopped_earlyEv(ptr noundef nonnull align 8 dereferenceable(96) %5)
          to label %21 unwind label %27

21:                                               ; preds = %19
  br i1 %20, label %22, label %31

22:                                               ; preds = %21
  %23 = load ptr, ptr %6, align 8, !tbaa !45
  %24 = icmp eq ptr %23, null
  br i1 %24, label %26, label %25

25:                                               ; preds = %22
  call void @_ZN10duckdb_re29Prefilter4InfoD1Ev(ptr noundef nonnull align 8 dereferenceable(64) %23) #18
  call void @_ZdlPv(ptr noundef %23) #21
  br label %26

26:                                               ; preds = %25, %22
  store ptr null, ptr %2, align 8
  store i32 1, ptr %9, align 4
  br label %33

27:                                               ; preds = %19, %1
  %28 = landingpad { ptr, i32 }
          cleanup
  %29 = extractvalue { ptr, i32 } %28, 0
  store ptr %29, ptr %7, align 8
  %30 = extractvalue { ptr, i32 } %28, 1
  store i32 %30, ptr %8, align 4
  call void @llvm.lifetime.end.p0(i64 8, ptr %6) #18
  call void @_ZN10duckdb_re26Regexp6WalkerIPNS_9Prefilter4InfoEED2Ev(ptr noundef nonnull align 8 dereferenceable(97) %5) #18
  call void @llvm.lifetime.end.p0(i64 104, ptr %5) #18
  call void @llvm.lifetime.end.p0(i64 1, ptr %4) #18
  br label %35

31:                                               ; preds = %21
  %32 = load ptr, ptr %6, align 8, !tbaa !45
  store ptr %32, ptr %2, align 8
  store i32 1, ptr %9, align 4
  br label %33

33:                                               ; preds = %31, %26
  call void @llvm.lifetime.end.p0(i64 8, ptr %6) #18
  call void @_ZN10duckdb_re26Regexp6WalkerIPNS_9Prefilter4InfoEED2Ev(ptr noundef nonnull align 8 dereferenceable(97) %5) #18
  call void @llvm.lifetime.end.p0(i64 104, ptr %5) #18
  call void @llvm.lifetime.end.p0(i64 1, ptr %4) #18
  %34 = load ptr, ptr %2, align 8
  ret ptr %34

35:                                               ; preds = %27
  %36 = load ptr, ptr %7, align 8
  %37 = load i32, ptr %8, align 4
  %38 = insertvalue { ptr, i32 } poison, ptr %36, 0
  %39 = insertvalue { ptr, i32 } %38, i32 %37, 1
  resume { ptr, i32 } %39
}