; Function Attrs: mustprogress uwtable
define hidden noundef ptr @_ZN10duckdb_re29Prefilter9BuildInfoEPNS_6RegexpE(ptr noundef %0) local_unnamed_addr #0 align 2 personality ptr @__gxx_personality_v0 {
  %2 = alloca %"class.duckdb_re2::Prefilter::Info::Walker", align 8
  %3 = getelementptr inbounds nuw i8, ptr %0, i64 2
  %4 = load i16, ptr %3, align 2, !tbaa !106
  call void @llvm.lifetime.start.p0(i64 104, ptr nonnull %2) #21
  %5 = trunc i16 %4 to i8
  %6 = lshr i8 %5, 5
  %7 = and i8 %6, 1
  store ptr getelementptr inbounds nuw inrange(-16, 48) (i8, ptr @_ZTVN10duckdb_re26Regexp6WalkerIPNS_9Prefilter4InfoEEE, i64 16), ptr %2, align 8, !tbaa !64
  %8 = getelementptr inbounds nuw i8, ptr %2, i64 8
  call void @llvm.memset.p0.i64(ptr noundef nonnull align 8 dereferenceable(80) %8, i8 0, i64 80, i1 false)
  call void @_ZNSt11_Deque_baseIN10duckdb_re29WalkStateIPNS0_9Prefilter4InfoEEESaIS5_EE17_M_initialize_mapEm(ptr noundef nonnull align 8 dereferenceable(80) %8, i64 noundef 0)
  %9 = getelementptr inbounds nuw i8, ptr %2, i64 88
  store i8 0, ptr %9, align 8, !tbaa !110
  store ptr getelementptr inbounds nuw inrange(-16, 48) (i8, ptr @_ZTVN10duckdb_re29Prefilter4Info6WalkerE, i64 16), ptr %2, align 8, !tbaa !64
  %10 = getelementptr inbounds nuw i8, ptr %2, i64 96
  store i8 %7, ptr %10, align 8, !tbaa !120
  %11 = getelementptr inbounds nuw i8, ptr %2, i64 92
  store i32 100000, ptr %11, align 4, !tbaa !122
  %12 = invoke noundef ptr @_ZN10duckdb_re26Regexp6WalkerIPNS_9Prefilter4InfoEE12WalkInternalEPS0_S4_b(ptr noundef nonnull align 8 dereferenceable(96) %2, ptr noundef nonnull %0, ptr noundef null, i1 noundef zeroext false)
          to label %_ZN10duckdb_re26Regexp6WalkerIPNS_9Prefilter4InfoEE15WalkExponentialEPS0_S4_i.exit unwind label %28

_ZN10duckdb_re26Regexp6WalkerIPNS_9Prefilter4InfoEE15WalkExponentialEPS0_S4_i.exit: ; preds = %1
  %13 = load i8, ptr %9, align 8, !tbaa !110, !range !52, !noundef !53
  %14 = trunc nuw i8 %13 to i1
  br i1 %14, label %15, label %30

15:                                               ; preds = %_ZN10duckdb_re26Regexp6WalkerIPNS_9Prefilter4InfoEE15WalkExponentialEPS0_S4_i.exit
  %16 = icmp eq ptr %12, null
  br i1 %16, label %30, label %17

17:                                               ; preds = %15
  %18 = getelementptr inbounds nuw i8, ptr %12, i64 56
  %19 = load ptr, ptr %18, align 8, !tbaa !51
  %20 = icmp eq ptr %19, null
  br i1 %20, label %22, label %21

21:                                               ; preds = %17
  call void @_ZN10duckdb_re29PrefilterD2Ev(ptr noundef nonnull align 8 dereferenceable(52) %19) #21
  call void @_ZdlPv(ptr noundef nonnull %19) #22
  br label %22

22:                                               ; preds = %21, %17
  %23 = getelementptr inbounds nuw i8, ptr %12, i64 16
  %24 = load ptr, ptr %23, align 8, !tbaa !41
  invoke void @_ZNSt8_Rb_treeINSt7__cxx1112basic_stringIcSt11char_traitsIcESaIcEEES5_St9_IdentityIS5_EN10duckdb_re29Prefilter13LengthThenLexESaIS5_EE8_M_eraseEPSt13_Rb_tree_nodeIS5_E(ptr noundef nonnull align 8 dereferenceable(64) %12, ptr noundef %24)
          to label %_ZN10duckdb_re29Prefilter4InfoD2Ev.exit unwind label %25

25:                                               ; preds = %22
  %26 = landingpad { ptr, i32 }
          catch ptr null
  %27 = extractvalue { ptr, i32 } %26, 0
  call void @__clang_call_terminate(ptr %27) #25
  unreachable

_ZN10duckdb_re29Prefilter4InfoD2Ev.exit:          ; preds = %22
  call void @_ZdlPv(ptr noundef nonnull %12) #22
  br label %30

28:                                               ; preds = %1
  %29 = landingpad { ptr, i32 }
          cleanup
  call void @_ZN10duckdb_re26Regexp6WalkerIPNS_9Prefilter4InfoEED2Ev(ptr noundef nonnull align 8 dereferenceable(97) %2) #21
  call void @llvm.lifetime.end.p0(i64 104, ptr nonnull %2) #21
  resume { ptr, i32 } %29

30:                                               ; preds = %_ZN10duckdb_re26Regexp6WalkerIPNS_9Prefilter4InfoEE15WalkExponentialEPS0_S4_i.exit, %15, %_ZN10duckdb_re29Prefilter4InfoD2Ev.exit
  %.0 = phi ptr [ null, %_ZN10duckdb_re29Prefilter4InfoD2Ev.exit ], [ null, %15 ], [ %12, %_ZN10duckdb_re26Regexp6WalkerIPNS_9Prefilter4InfoEE15WalkExponentialEPS0_S4_i.exit ]
  store ptr getelementptr inbounds nuw inrange(-16, 48) (i8, ptr @_ZTVN10duckdb_re26Regexp6WalkerIPNS_9Prefilter4InfoEEE, i64 16), ptr %2, align 8, !tbaa !64
  invoke void @_ZN10duckdb_re26Regexp6WalkerIPNS_9Prefilter4InfoEE5ResetEv(ptr noundef nonnull align 8 dereferenceable(97) %2)
          to label %31 unwind label %44

31:                                               ; preds = %30
  %32 = load ptr, ptr %8, align 8, !tbaa !123
  %.not.i.i.i.i = icmp eq ptr %32, null
  br i1 %.not.i.i.i.i, label %_ZN10duckdb_re26Regexp6WalkerIPNS_9Prefilter4InfoEED2Ev.exit, label %33

33:                                               ; preds = %31
  %34 = getelementptr inbounds nuw i8, ptr %2, i64 80
  %35 = getelementptr inbounds nuw i8, ptr %2, i64 48
  %36 = load ptr, ptr %35, align 8, !tbaa !124
  %37 = load ptr, ptr %34, align 8, !tbaa !125
  %38 = getelementptr inbounds nuw i8, ptr %37, i64 8
  %39 = icmp ult ptr %36, %38
  br i1 %39, label %.lr.ph.i.i.i.i.i, label %_ZNSt11_Deque_baseIN10duckdb_re29WalkStateIPNS0_9Prefilter4InfoEEESaIS5_EE16_M_destroy_nodesEPPS5_S9_.exit.i.i.i.i

.lr.ph.i.i.i.i.i:                                 ; preds = %33, %.lr.ph.i.i.i.i.i
  %.06.i.i.i.i.i = phi ptr [ %41, %.lr.ph.i.i.i.i.i ], [ %36, %33 ]
  %40 = load ptr, ptr %.06.i.i.i.i.i, align 8, !tbaa !126
  call void @_ZdlPv(ptr noundef %40) #22
  %41 = getelementptr inbounds nuw i8, ptr %.06.i.i.i.i.i, i64 8
  %42 = icmp ult ptr %.06.i.i.i.i.i, %37
  br i1 %42, label %.lr.ph.i.i.i.i.i, label %_ZNSt11_Deque_baseIN10duckdb_re29WalkStateIPNS0_9Prefilter4InfoEEESaIS5_EE16_M_destroy_nodesEPPS5_S9_.exit.loopexit.i.i.i.i, !llvm.loop !127

_ZNSt11_Deque_baseIN10duckdb_re29WalkStateIPNS0_9Prefilter4InfoEEESaIS5_EE16_M_destroy_nodesEPPS5_S9_.exit.loopexit.i.i.i.i: ; preds = %.lr.ph.i.i.i.i.i
  %.pre.i.i.i.i = load ptr, ptr %8, align 8, !tbaa !123
  br label %_ZNSt11_Deque_baseIN10duckdb_re29WalkStateIPNS0_9Prefilter4InfoEEESaIS5_EE16_M_destroy_nodesEPPS5_S9_.exit.i.i.i.i

_ZNSt11_Deque_baseIN10duckdb_re29WalkStateIPNS0_9Prefilter4InfoEEESaIS5_EE16_M_destroy_nodesEPPS5_S9_.exit.i.i.i.i: ; preds = %_ZNSt11_Deque_baseIN10duckdb_re29WalkStateIPNS0_9Prefilter4InfoEEESaIS5_EE16_M_destroy_nodesEPPS5_S9_.exit.loopexit.i.i.i.i, %33
  %43 = phi ptr [ %.pre.i.i.i.i, %_ZNSt11_Deque_baseIN10duckdb_re29WalkStateIPNS0_9Prefilter4InfoEEESaIS5_EE16_M_destroy_nodesEPPS5_S9_.exit.loopexit.i.i.i.i ], [ %32, %33 ]
  call void @_ZdlPv(ptr noundef %43) #22
  br label %_ZN10duckdb_re26Regexp6WalkerIPNS_9Prefilter4InfoEED2Ev.exit

44:                                               ; preds = %30
  %45 = landingpad { ptr, i32 }
          catch ptr null
  %46 = extractvalue { ptr, i32 } %45, 0
  call void @__clang_call_terminate(ptr %46) #25
  unreachable

_ZN10duckdb_re26Regexp6WalkerIPNS_9Prefilter4InfoEED2Ev.exit: ; preds = %31, %_ZNSt11_Deque_baseIN10duckdb_re29WalkStateIPNS0_9Prefilter4InfoEEESaIS5_EE16_M_destroy_nodesEPPS5_S9_.exit.i.i.i.i
  call void @llvm.lifetime.end.p0(i64 104, ptr nonnull %2) #21
  ret ptr %.0
}